; Function Attrs: mustprogress nounwind uwtable
define void @_ZN5folly10SSLContext28setSessionLifecycleCallbacksESt10unique_ptrINS0_25SessionLifecycleCallbacksESt14default_deleteIS2_EE(ptr noundef nonnull align 8 captures(none) dereferenceable(304) %0, ptr noundef captures(none) %1) local_unnamed_addr #1 align 2 {
  %3 = getelementptr inbounds nuw i8, ptr %0, i64 296
  %4 = load ptr, ptr %1, align 8, !tbaa !171
  store ptr null, ptr %1, align 8, !tbaa !171
  %5 = load ptr, ptr %3, align 8, !tbaa !171
  store ptr %4, ptr %3, align 8, !tbaa !171
  %.not.i.i.i.i = icmp eq ptr %5, null
  br i1 %.not.i.i.i.i, label %_ZNSt10unique_ptrIN5folly10SSLContext25SessionLifecycleCallbacksESt14default_deleteIS2_EEaSEOS5_.exit, label %_ZNKSt14default_deleteIN5folly10SSLContext25SessionLifecycleCallbacksEEclEPS2_.exit.i.i.i.i

_ZNKSt14default_deleteIN5folly10SSLContext25SessionLifecycleCallbacksEEclEPS2_.exit.i.i.i.i: ; preds = %2
  %6 = load ptr, ptr %5, align 8, !tbaa !7
  %7 = getelementptr inbounds nuw i8, ptr %6, i64 16
  %8 = load ptr, ptr %7, align 8
  tail call void %8(ptr noundef nonnull align 8 dereferenceable(8) %5) #29
  br label %_ZNSt10unique_ptrIN5folly10SSLContext25SessionLifecycleCallbacksESt14default_deleteIS2_EEaSEOS5_.exit

_ZNSt10unique_ptrIN5folly10SSLContext25SessionLifecycleCallbacksESt14default_deleteIS2_EEaSEOS5_.exit: ; preds = %2, %_ZNKSt14default_deleteIN5folly10SSLContext25SessionLifecycleCallbacksEEclEPS2_.exit.i.i.i.i
  ret void
}